target datalayout = "e-m:e-p270:32:32-p271:32:32-p272:64:64-i64:64-i128:128-f80:128-n8:16:32:64-S128"
target triple = "x86_64-pc-linux-gnu"

%"struct.std::_Rb_tree_key_compare" = type { %"struct.std::less" }
%"struct.std::less" = type { i8 }
%"struct.std::_Rb_tree_header" = type { %"struct.std::_Rb_tree_node_base", i64 }
%"struct.std::_Rb_tree_node_base" = type { i32, ptr, ptr, ptr }
%"class.std::__cxx11::basic_string" = type { %"struct.std::__cxx11::basic_string<char>::_Alloc_hider", i64, %union.anon }
%"struct.std::__cxx11::basic_string<char>::_Alloc_hider" = type { ptr }
%union.anon = type { i64, [8 x i8] }
%"class.ArgumentParser::ParseResult" = type { %"class.std::map.227" }
%"class.std::map.227" = type { %"class.std::_Rb_tree.228" }
%"class.std::_Rb_tree.228" = type { %"struct.std::_Rb_tree<std::basic_string_view<char>, std::pair<const std::basic_string_view<char>, std::__cxx11::basic_string<char>>, std::_Select1st<std::pair<const std::basic_string_view<char>, std::__cxx11::basic_string<char>>>, std::less<std::basic_string_view<char>>>::_Rb_tree_impl" }
%"struct.std::_Rb_tree<std::basic_string_view<char>, std::pair<const std::basic_string_view<char>, std::__cxx11::basic_string<char>>, std::_Select1st<std::pair<const std::basic_string_view<char>, std::__cxx11::basic_string<char>>>, std::less<std::basic_string_view<char>>>::_Rb_tree_impl" = type { %"struct.std::_Rb_tree_key_compare", %"struct.std::_Rb_tree_header" }
%"class.std::optional.243" = type { %"struct.std::_Optional_base.244" }
%"struct.std::_Optional_base.244" = type { %"struct.std::_Optional_payload.246" }
%"struct.std::_Optional_payload.246" = type { %"struct.std::_Optional_payload.base.250", [7 x i8] }
%"struct.std::_Optional_payload.base.250" = type { %"struct.std::_Optional_payload_base.base.249" }
%"struct.std::_Optional_payload_base.base.249" = type <{ %"union.std::_Optional_payload_base<ArgumentParser::NonEmpty<std::__cxx11::basic_string<char>>>::_Storage", i8 }>
%"union.std::_Optional_payload_base<ArgumentParser::NonEmpty<std::__cxx11::basic_string<char>>>::_Storage" = type { %"struct.ArgumentParser::NonEmpty" }
%"struct.ArgumentParser::NonEmpty" = type { %"class.std::__cxx11::basic_string" }
%struct.Arguments.269 = type <{ %"class.ArgumentParser::ParseResult", %"class.std::optional.243", i8, [7 x i8] }>
%"struct.std::_Optional_payload_base.248" = type <{ %"union.std::_Optional_payload_base<ArgumentParser::NonEmpty<std::__cxx11::basic_string<char>>>::_Storage", i8, [7 x i8] }>

; Function Attrs: mustprogress nounwind uwtable
define linkonce_odr dso_local void @_ZNSt15__new_allocatorISt13_Rb_tree_nodeISt4pairIKSt17basic_string_viewIcSt11char_traitsIcEENSt7__cxx1112basic_stringIcS4_SaIcEEEEEED2Ev(ptr noundef nonnull align 1 dereferenceable(1) %0) unnamed_addr #5 comdat align 2 {
  %2 = alloca ptr, align 8
  store ptr %0, ptr %2, align 8
  ret void
}

; Function Attrs: mustprogress nounwind uwtable
define linkonce_odr dso_local void @_ZNSt22_Optional_payload_baseIN14ArgumentParser8NonEmptyINSt7__cxx1112basic_stringIcSt11char_traitsIcESaIcEEEEEE8_StorageIS8_Lb0EED2Ev(ptr noundef nonnull align 8 dereferenceable(32) %0) unnamed_addr #5 comdat align 2 {
  %2 = alloca ptr, align 8
  store ptr %0, ptr %2, align 8
  ret void
}

; Function Attrs: mustprogress nounwind uwtable
define linkonce_odr dso_local void @_ZN14ArgumentParser8NonEmptyINSt7__cxx1112basic_stringIcSt11char_traitsIcESaIcEEEED2Ev(ptr noundef nonnull align 8 dereferenceable(32) %0) unnamed_addr #5 comdat align 2 {
  %2 = alloca ptr, align 8
  store ptr %0, ptr %2, align 8
  %3 = load ptr, ptr %2, align 8
  call void @_ZNSt7__cxx1112basic_stringIcSt11char_traitsIcESaIcEED2Ev(ptr noundef nonnull align 8 dereferenceable(32) %3) #3
  ret void
}

; Function Attrs: mustprogress nounwind uwtable
define linkonce_odr dso_local void @_ZNSaISt13_Rb_tree_nodeISt4pairIKSt17basic_string_viewIcSt11char_traitsIcEENSt7__cxx1112basic_stringIcS3_SaIcEEEEEED2Ev(ptr noundef nonnull align 1 dereferenceable(1) %0) unnamed_addr #5 comdat align 2 {
  %2 = alloca ptr, align 8
  store ptr %0, ptr %2, align 8
  %3 = load ptr, ptr %2, align 8
  call void @_ZNSt15__new_allocatorISt13_Rb_tree_nodeISt4pairIKSt17basic_string_viewIcSt11char_traitsIcEENSt7__cxx1112basic_stringIcS4_SaIcEEEEEED2Ev(ptr noundef nonnull align 1 dereferenceable(1) %3) #3
  ret void
}

; Function Attrs: mustprogress nounwind uwtable
define linkonce_odr dso_local noundef ptr @_ZNKSt8_Rb_treeISt17basic_string_viewIcSt11char_traitsIcEESt4pairIKS3_NSt7__cxx1112basic_stringIcS2_SaIcEEEESt10_Select1stISA_ESt4lessIS3_ESaISA_EE9_M_mbeginEv(ptr noundef nonnull align 8 dereferenceable(48) %0) #5 comdat align 2 {
  %2 = alloca ptr, align 8
  store ptr %0, ptr %2, align 8
  %3 = load ptr, ptr %2, align 8
  %4 = getelementptr inbounds %"class.std::_Rb_tree.228", ptr %3, i32 0, i32 0
  %5 = getelementptr inbounds i8, ptr %4, i64 8
  %6 = getelementptr inbounds %"struct.std::_Rb_tree_header", ptr %5, i32 0, i32 0
  %7 = getelementptr inbounds %"struct.std::_Rb_tree_node_base", ptr %6, i32 0, i32 1
  %8 = load ptr, ptr %7, align 8
  ret ptr %8
}

; Function Attrs: mustprogress nounwind uwtable
define linkonce_odr dso_local void @_ZNSt22_Optional_payload_baseIN14ArgumentParser8NonEmptyINSt7__cxx1112basic_stringIcSt11char_traitsIcESaIcEEEEEED2Ev(ptr noundef nonnull align 8 dereferenceable(33) %0) unnamed_addr #5 comdat align 2 {
  %2 = alloca ptr, align 8
  store ptr %0, ptr %2, align 8
  %3 = load ptr, ptr %2, align 8
  %4 = getelementptr inbounds %"struct.std::_Optional_payload_base.248", ptr %3, i32 0, i32 0
  call void @_ZNSt22_Optional_payload_baseIN14ArgumentParser8NonEmptyINSt7__cxx1112basic_stringIcSt11char_traitsIcESaIcEEEEEE8_StorageIS8_Lb0EED2Ev(ptr noundef nonnull align 8 dereferenceable(32) %4) #3
  ret void
}

; Function Attrs: mustprogress nounwind uwtable
define linkonce_odr dso_local void @_ZNSt22_Optional_payload_baseIN14ArgumentParser8NonEmptyINSt7__cxx1112basic_stringIcSt11char_traitsIcESaIcEEEEEE10_M_destroyEv(ptr noundef nonnull align 8 dereferenceable(33) %0) #5 comdat align 2 {
  %2 = alloca ptr, align 8
  store ptr %0, ptr %2, align 8
  %3 = load ptr, ptr %2, align 8
  %4 = getelementptr inbounds %"struct.std::_Optional_payload_base.248", ptr %3, i32 0, i32 1
  store i8 0, ptr %4, align 8
  %5 = getelementptr inbounds %"struct.std::_Optional_payload_base.248", ptr %3, i32 0, i32 0
  call void @_ZN14ArgumentParser8NonEmptyINSt7__cxx1112basic_stringIcSt11char_traitsIcESaIcEEEED2Ev(ptr noundef nonnull align 8 dereferenceable(32) %5) #3
  ret void
}

; Function Attrs: mustprogress nounwind uwtable
define linkonce_odr dso_local void @_ZNSt8_Rb_treeISt17basic_string_viewIcSt11char_traitsIcEESt4pairIKS3_NSt7__cxx1112basic_stringIcS2_SaIcEEEESt10_Select1stISA_ESt4lessIS3_ESaISA_EE13_Rb_tree_implISE_Lb1EED2Ev(ptr noundef nonnull align 8 dereferenceable(48) %0) unnamed_addr #5 comdat align 2 {
  %2 = alloca ptr, align 8
  store ptr %0, ptr %2, align 8
  %3 = load ptr, ptr %2, align 8
  call void @_ZNSaISt13_Rb_tree_nodeISt4pairIKSt17basic_string_viewIcSt11char_traitsIcEENSt7__cxx1112basic_stringIcS3_SaIcEEEEEED2Ev(ptr noundef nonnull align 1 dereferenceable(1) %3) #3
  ret void
}

; Function Attrs: mustprogress nounwind uwtable
define linkonce_odr dso_local noundef ptr @_ZNSt8_Rb_treeISt17basic_string_viewIcSt11char_traitsIcEESt4pairIKS3_NSt7__cxx1112basic_stringIcS2_SaIcEEEESt10_Select1stISA_ESt4lessIS3_ESaISA_EE8_M_beginEv(ptr noundef nonnull align 8 dereferenceable(48) %0) #5 comdat align 2 {
  %2 = alloca ptr, align 8
  store ptr %0, ptr %2, align 8
  %3 = load ptr, ptr %2, align 8
  %4 = call noundef ptr @_ZNKSt8_Rb_treeISt17basic_string_viewIcSt11char_traitsIcEESt4pairIKS3_NSt7__cxx1112basic_stringIcS2_SaIcEEEESt10_Select1stISA_ESt4lessIS3_ESaISA_EE9_M_mbeginEv(ptr noundef nonnull align 8 dereferenceable(48) %3) #3
  ret ptr %4
}

; Function Attrs: mustprogress nounwind uwtable
define linkonce_odr dso_local void @_ZNSt17_Optional_payloadIN14ArgumentParser8NonEmptyINSt7__cxx1112basic_stringIcSt11char_traitsIcESaIcEEEEELb1ELb0ELb0EED2Ev(ptr noundef nonnull align 8 dereferenceable(33) %0) unnamed_addr #5 comdat align 2 {
  %2 = alloca ptr, align 8
  store ptr %0, ptr %2, align 8
  %3 = load ptr, ptr %2, align 8
  call void @_ZNSt22_Optional_payload_baseIN14ArgumentParser8NonEmptyINSt7__cxx1112basic_stringIcSt11char_traitsIcESaIcEEEEEED2Ev(ptr noundef nonnull align 8 dereferenceable(33) %3) #3
  ret void
}

; Function Attrs: mustprogress nounwind uwtable
define linkonce_odr dso_local void @_ZNSt22_Optional_payload_baseIN14ArgumentParser8NonEmptyINSt7__cxx1112basic_stringIcSt11char_traitsIcESaIcEEEEEE8_M_resetEv(ptr noundef nonnull align 8 dereferenceable(33) %0) #5 comdat align 2 {
  %2 = alloca ptr, align 8
  store ptr %0, ptr %2, align 8
  %3 = load ptr, ptr %2, align 8
  %4 = getelementptr inbounds %"struct.std::_Optional_payload_base.248", ptr %3, i32 0, i32 1
  %5 = load i8, ptr %4, align 8
  %6 = trunc i8 %5 to i1
  br i1 %6, label %7, label %8

7:                                                ; preds = %1
  call void @_ZNSt22_Optional_payload_baseIN14ArgumentParser8NonEmptyINSt7__cxx1112basic_stringIcSt11char_traitsIcESaIcEEEEEE10_M_destroyEv(ptr noundef nonnull align 8 dereferenceable(33) %3) #3
  br label %8

8:                                                ; preds = %7, %1
  ret void
}

; Function Attrs: mustprogress nounwind uwtable
define linkonce_odr dso_local void @_ZNSt8_Rb_treeISt17basic_string_viewIcSt11char_traitsIcEESt4pairIKS3_NSt7__cxx1112basic_stringIcS2_SaIcEEEESt10_Select1stISA_ESt4lessIS3_ESaISA_EED2Ev(ptr noundef nonnull align 8 dereferenceable(48) %0) unnamed_addr #5 comdat align 2 personality ptr @__gxx_personality_v0 {
  %2 = alloca ptr, align 8
  store ptr %0, ptr %2, align 8
  %3 = load ptr, ptr %2, align 8
  %4 = call noundef ptr @_ZNSt8_Rb_treeISt17basic_string_viewIcSt11char_traitsIcEESt4pairIKS3_NSt7__cxx1112basic_stringIcS2_SaIcEEEESt10_Select1stISA_ESt4lessIS3_ESaISA_EE8_M_beginEv(ptr noundef nonnull align 8 dereferenceable(48) %3) #3
  invoke void @_ZNSt8_Rb_treeISt17basic_string_viewIcSt11char_traitsIcEESt4pairIKS3_NSt7__cxx1112basic_stringIcS2_SaIcEEEESt10_Select1stISA_ESt4lessIS3_ESaISA_EE8_M_eraseEPSt13_Rb_tree_nodeISA_E(ptr noundef nonnull align 8 dereferenceable(48) %3, ptr noundef %4)
          to label %5 unwind label %7

5:                                                ; preds = %1
  %6 = getelementptr inbounds %"class.std::_Rb_tree.228", ptr %3, i32 0, i32 0
  call void @_ZNSt8_Rb_treeISt17basic_string_viewIcSt11char_traitsIcEESt4pairIKS3_NSt7__cxx1112basic_stringIcS2_SaIcEEEESt10_Select1stISA_ESt4lessIS3_ESaISA_EE13_Rb_tree_implISE_Lb1EED2Ev(ptr noundef nonnull align 8 dereferenceable(48) %6) #3
  ret void

7:                                                ; preds = %1
  %8 = landingpad { ptr, i32 }
          catch ptr null
  %9 = extractvalue { ptr, i32 } %8, 0
  call void @__clang_call_terminate(ptr %9) #16
  unreachable
}

; Function Attrs: mustprogress nounwind uwtable
define linkonce_odr dso_local void @_ZNSt17_Optional_payloadIN14ArgumentParser8NonEmptyINSt7__cxx1112basic_stringIcSt11char_traitsIcESaIcEEEEELb0ELb0ELb0EED2Ev(ptr noundef nonnull align 8 dereferenceable(33) %0) unnamed_addr #5 comdat align 2 {
  %2 = alloca ptr, align 8
  store ptr %0, ptr %2, align 8
  %3 = load ptr, ptr %2, align 8
  call void @_ZNSt22_Optional_payload_baseIN14ArgumentParser8NonEmptyINSt7__cxx1112basic_stringIcSt11char_traitsIcESaIcEEEEEE8_M_resetEv(ptr noundef nonnull align 8 dereferenceable(33) %3) #3
  call void @_ZNSt17_Optional_payloadIN14ArgumentParser8NonEmptyINSt7__cxx1112basic_stringIcSt11char_traitsIcESaIcEEEEELb1ELb0ELb0EED2Ev(ptr noundef nonnull align 8 dereferenceable(33) %3) #3
  ret void
}

; Function Attrs: mustprogress nounwind uwtable
define linkonce_odr dso_local void @_ZNSt3mapISt17basic_string_viewIcSt11char_traitsIcEENSt7__cxx1112basic_stringIcS2_SaIcEEESt4lessIS3_ESaISt4pairIKS3_S7_EEED2Ev(ptr noundef nonnull align 8 dereferenceable(48) %0) unnamed_addr #5 comdat align 2 {
  %2 = alloca ptr, align 8
  store ptr %0, ptr %2, align 8
  %3 = load ptr, ptr %2, align 8
  %4 = getelementptr inbounds %"class.std::map.227", ptr %3, i32 0, i32 0
  call void @_ZNSt8_Rb_treeISt17basic_string_viewIcSt11char_traitsIcEESt4pairIKS3_NSt7__cxx1112basic_stringIcS2_SaIcEEEESt10_Select1stISA_ESt4lessIS3_ESaISA_EED2Ev(ptr noundef nonnull align 8 dereferenceable(48) %4) #3
  ret void
}

; Function Attrs: mustprogress nounwind uwtable
define linkonce_odr dso_local void @_ZNSt14_Optional_baseIN14ArgumentParser8NonEmptyINSt7__cxx1112basic_stringIcSt11char_traitsIcESaIcEEEEELb0ELb0EED2Ev(ptr noundef nonnull align 8 dereferenceable(40) %0) unnamed_addr #5 comdat align 2 {
  %2 = alloca ptr, align 8
  store ptr %0, ptr %2, align 8
  %3 = load ptr, ptr %2, align 8
  %4 = getelementptr inbounds %"struct.std::_Optional_base.244", ptr %3, i32 0, i32 0
  call void @_ZNSt17_Optional_payloadIN14ArgumentParser8NonEmptyINSt7__cxx1112basic_stringIcSt11char_traitsIcESaIcEEEEELb0ELb0ELb0EED2Ev(ptr noundef nonnull align 8 dereferenceable(33) %4) #3
  ret void
}

; Function Attrs: mustprogress nounwind uwtable
define linkonce_odr dso_local void @_ZN14ArgumentParser11ParseResultD2Ev(ptr noundef nonnull align 8 dereferenceable(48) %0) unnamed_addr #5 comdat align 2 {
  %2 = alloca ptr, align 8
  store ptr %0, ptr %2, align 8
  %3 = load ptr, ptr %2, align 8
  %4 = getelementptr inbounds %"class.ArgumentParser::ParseResult", ptr %3, i32 0, i32 0
  call void @_ZNSt3mapISt17basic_string_viewIcSt11char_traitsIcEENSt7__cxx1112basic_stringIcS2_SaIcEEESt4lessIS3_ESaISt4pairIKS3_S7_EEED2Ev(ptr noundef nonnull align 8 dereferenceable(48) %4) #3
  ret void
}

; Function Attrs: mustprogress nounwind uwtable
define linkonce_odr dso_local void @_ZNSt8optionalIN14ArgumentParser8NonEmptyINSt7__cxx1112basic_stringIcSt11char_traitsIcESaIcEEEEEED2Ev(ptr noundef nonnull align 8 dereferenceable(40) %0) unnamed_addr #5 comdat align 2 {
  %2 = alloca ptr, align 8
  store ptr %0, ptr %2, align 8
  %3 = load ptr, ptr %2, align 8
  call void @_ZNSt14_Optional_baseIN14ArgumentParser8NonEmptyINSt7__cxx1112basic_stringIcSt11char_traitsIcESaIcEEEEELb0ELb0EED2Ev(ptr noundef nonnull align 8 dereferenceable(40) %3) #3
  ret void
}

; Function Attrs: mustprogress nounwind uwtable
define internal void @_ZZN12_GLOBAL__N_129HandleReplaceExtensionCommandERKSt6vectorINSt7__cxx1112basic_stringIcSt11char_traitsIcESaIcEEESaIS6_EER17cmExecutionStatusEN9ArgumentsD2Ev(ptr noundef nonnull align 8 dereferenceable(89) %0) unnamed_addr #5 align 2 {
  %2 = alloca ptr, align 8
  store ptr %0, ptr %2, align 8
  %3 = load ptr, ptr %2, align 8
  %4 = getelementptr inbounds %struct.Arguments.269, ptr %3, i32 0, i32 1
  call void @_ZNSt8optionalIN14ArgumentParser8NonEmptyINSt7__cxx1112basic_stringIcSt11char_traitsIcESaIcEEEEEED2Ev(ptr noundef nonnull align 8 dereferenceable(40) %4) #3
  call void @_ZN14ArgumentParser11ParseResultD2Ev(ptr noundef nonnull align 8 dereferenceable(48) %3) #3
  ret void
}